target datalayout = "e-m:e-p270:32:32-p271:32:32-p272:64:64-i64:64-i128:128-f80:128-n8:16:32:64-S128"
target triple = "x86_64-pc-linux-gnu"

%struct.lexbor_shs_hash_t = type { i32, i32, i32 }
%struct.lxb_encoding_encode_t = type { ptr, ptr, i64, i64, ptr, i64, i32 }

@lxb_encoding_multi_hash_jis0208 = external constant [11349 x %struct.lexbor_shs_hash_t], align 16

; Function Attrs: nounwind uwtable
define internal ptr @lexbor_shs_hash_get_static(ptr noundef %0, i64 noundef %1, i32 noundef %2) #0 {
  %4 = alloca ptr, align 8
  %5 = alloca ptr, align 8
  %6 = alloca i64, align 8
  %7 = alloca i32, align 4
  %8 = alloca ptr, align 8
  store ptr %0, ptr %5, align 8
  store i64 %1, ptr %6, align 8
  store i32 %2, ptr %7, align 4
  %9 = load ptr, ptr %5, align 8
  %10 = load i32, ptr %7, align 4
  %11 = zext i32 %10 to i64
  %12 = load i64, ptr %6, align 8
  %13 = urem i64 %11, %12
  %14 = add i64 %13, 1
  %15 = getelementptr inbounds %struct.lexbor_shs_hash_t, ptr %9, i64 %14
  store ptr %15, ptr %8, align 8
  br label %16

16:                                               ; preds = %31, %3
  %17 = load ptr, ptr %8, align 8
  %18 = getelementptr inbounds %struct.lexbor_shs_hash_t, ptr %17, i32 0, i32 0
  %19 = load i32, ptr %18, align 4
  %20 = load i32, ptr %7, align 4
  %21 = icmp eq i32 %19, %20
  br i1 %21, label %22, label %24

22:                                               ; preds = %16
  %23 = load ptr, ptr %8, align 8
  store ptr %23, ptr %4, align 8
  br label %36

24:                                               ; preds = %16
  %25 = load ptr, ptr %5, align 8
  %26 = load ptr, ptr %8, align 8
  %27 = getelementptr inbounds %struct.lexbor_shs_hash_t, ptr %26, i32 0, i32 2
  %28 = load i32, ptr %27, align 4
  %29 = zext i32 %28 to i64
  %30 = getelementptr inbounds %struct.lexbor_shs_hash_t, ptr %25, i64 %29
  store ptr %30, ptr %8, align 8
  br label %31

31:                                               ; preds = %24
  %32 = load ptr, ptr %8, align 8
  %33 = load ptr, ptr %5, align 8
  %34 = icmp ne ptr %32, %33
  br i1 %34, label %16, label %35

35:                                               ; preds = %31
  store ptr null, ptr %4, align 8
  br label %36

36:                                               ; preds = %35, %22
  %37 = load ptr, ptr %4, align 8
  ret ptr %37
}

; Function Attrs: nounwind uwtable
define hidden i32 @lxb_encoding_encode_euc_jp(ptr noundef %0, ptr noundef %1, ptr noundef %2) #0 {
  %4 = alloca i32, align 4
  %5 = alloca ptr, align 8
  %6 = alloca ptr, align 8
  %7 = alloca ptr, align 8
  %8 = alloca i32, align 4
  %9 = alloca ptr, align 8
  store ptr %0, ptr %5, align 8
  store ptr %1, ptr %6, align 8
  store ptr %2, ptr %7, align 8
  br label %10

10:                                               ; preds = %218, %3
  %11 = load ptr, ptr %6, align 8
  %12 = load ptr, ptr %11, align 8
  %13 = load ptr, ptr %7, align 8
  %14 = icmp ult ptr %12, %13
  br i1 %14, label %15, label %222

15:                                               ; preds = %10
  %16 = load ptr, ptr %6, align 8
  %17 = load ptr, ptr %16, align 8
  %18 = load i32, ptr %17, align 4
  store i32 %18, ptr %8, align 4
  %19 = load i32, ptr %8, align 4
  %20 = icmp ult i32 %19, 128
  br i1 %20, label %21, label %43

21:                                               ; preds = %15
  br label %22

22:                                               ; preds = %21
  %23 = load ptr, ptr %5, align 8
  %24 = getelementptr inbounds %struct.lxb_encoding_encode_t, ptr %23, i32 0, i32 3
  %25 = load i64, ptr %24, align 8
  %26 = load ptr, ptr %5, align 8
  %27 = getelementptr inbounds %struct.lxb_encoding_encode_t, ptr %26, i32 0, i32 2
  %28 = load i64, ptr %27, align 8
  %29 = icmp eq i64 %25, %28
  br i1 %29, label %30, label %31

30:                                               ; preds = %22
  store i32 15, ptr %4, align 4
  br label %223

31:                                               ; preds = %22
  %32 = load i32, ptr %8, align 4
  %33 = trunc i32 %32 to i8
  %34 = load ptr, ptr %5, align 8
  %35 = getelementptr inbounds %struct.lxb_encoding_encode_t, ptr %34, i32 0, i32 1
  %36 = load ptr, ptr %35, align 8
  %37 = load ptr, ptr %5, align 8
  %38 = getelementptr inbounds %struct.lxb_encoding_encode_t, ptr %37, i32 0, i32 3
  %39 = load i64, ptr %38, align 8
  %40 = add i64 %39, 1
  store i64 %40, ptr %38, align 8
  %41 = getelementptr inbounds i8, ptr %36, i64 %39
  store i8 %33, ptr %41, align 1
  br label %42

42:                                               ; preds = %31
  br label %218

43:                                               ; preds = %15
  %44 = load i32, ptr %8, align 4
  %45 = icmp eq i32 %44, 165
  br i1 %45, label %46, label %66

46:                                               ; preds = %43
  br label %47

47:                                               ; preds = %46
  %48 = load ptr, ptr %5, align 8
  %49 = getelementptr inbounds %struct.lxb_encoding_encode_t, ptr %48, i32 0, i32 3
  %50 = load i64, ptr %49, align 8
  %51 = load ptr, ptr %5, align 8
  %52 = getelementptr inbounds %struct.lxb_encoding_encode_t, ptr %51, i32 0, i32 2
  %53 = load i64, ptr %52, align 8
  %54 = icmp eq i64 %50, %53
  br i1 %54, label %55, label %56

55:                                               ; preds = %47
  store i32 15, ptr %4, align 4
  br label %223

56:                                               ; preds = %47
  %57 = load ptr, ptr %5, align 8
  %58 = getelementptr inbounds %struct.lxb_encoding_encode_t, ptr %57, i32 0, i32 1
  %59 = load ptr, ptr %58, align 8
  %60 = load ptr, ptr %5, align 8
  %61 = getelementptr inbounds %struct.lxb_encoding_encode_t, ptr %60, i32 0, i32 3
  %62 = load i64, ptr %61, align 8
  %63 = add i64 %62, 1
  store i64 %63, ptr %61, align 8
  %64 = getelementptr inbounds i8, ptr %59, i64 %62
  store i8 92, ptr %64, align 1
  br label %65

65:                                               ; preds = %56
  br label %218

66:                                               ; preds = %43
  %67 = load i32, ptr %8, align 4
  %68 = icmp eq i32 %67, 8254
  br i1 %68, label %69, label %89

69:                                               ; preds = %66
  br label %70

70:                                               ; preds = %69
  %71 = load ptr, ptr %5, align 8
  %72 = getelementptr inbounds %struct.lxb_encoding_encode_t, ptr %71, i32 0, i32 3
  %73 = load i64, ptr %72, align 8
  %74 = load ptr, ptr %5, align 8
  %75 = getelementptr inbounds %struct.lxb_encoding_encode_t, ptr %74, i32 0, i32 2
  %76 = load i64, ptr %75, align 8
  %77 = icmp eq i64 %73, %76
  br i1 %77, label %78, label %79

78:                                               ; preds = %70
  store i32 15, ptr %4, align 4
  br label %223

79:                                               ; preds = %70
  %80 = load ptr, ptr %5, align 8
  %81 = getelementptr inbounds %struct.lxb_encoding_encode_t, ptr %80, i32 0, i32 1
  %82 = load ptr, ptr %81, align 8
  %83 = load ptr, ptr %5, align 8
  %84 = getelementptr inbounds %struct.lxb_encoding_encode_t, ptr %83, i32 0, i32 3
  %85 = load i64, ptr %84, align 8
  %86 = add i64 %85, 1
  store i64 %86, ptr %84, align 8
  %87 = getelementptr inbounds i8, ptr %82, i64 %85
  store i8 126, ptr %87, align 1
  br label %88

88:                                               ; preds = %79
  br label %218

89:                                               ; preds = %66
  %90 = load i32, ptr %8, align 4
  %91 = sub i32 %90, 65377
  %92 = icmp ule i32 %91, 62
  br i1 %92, label %93, label %124

93:                                               ; preds = %89
  %94 = load ptr, ptr %5, align 8
  %95 = getelementptr inbounds %struct.lxb_encoding_encode_t, ptr %94, i32 0, i32 3
  %96 = load i64, ptr %95, align 8
  %97 = add i64 %96, 2
  %98 = load ptr, ptr %5, align 8
  %99 = getelementptr inbounds %struct.lxb_encoding_encode_t, ptr %98, i32 0, i32 2
  %100 = load i64, ptr %99, align 8
  %101 = icmp ugt i64 %97, %100
  br i1 %101, label %102, label %103

102:                                              ; preds = %93
  store i32 15, ptr %4, align 4
  br label %223

103:                                              ; preds = %93
  %104 = load ptr, ptr %5, align 8
  %105 = getelementptr inbounds %struct.lxb_encoding_encode_t, ptr %104, i32 0, i32 1
  %106 = load ptr, ptr %105, align 8
  %107 = load ptr, ptr %5, align 8
  %108 = getelementptr inbounds %struct.lxb_encoding_encode_t, ptr %107, i32 0, i32 3
  %109 = load i64, ptr %108, align 8
  %110 = add i64 %109, 1
  store i64 %110, ptr %108, align 8
  %111 = getelementptr inbounds i8, ptr %106, i64 %109
  store i8 -114, ptr %111, align 1
  %112 = load i32, ptr %8, align 4
  %113 = sub i32 %112, 65377
  %114 = add i32 %113, 161
  %115 = trunc i32 %114 to i8
  %116 = load ptr, ptr %5, align 8
  %117 = getelementptr inbounds %struct.lxb_encoding_encode_t, ptr %116, i32 0, i32 1
  %118 = load ptr, ptr %117, align 8
  %119 = load ptr, ptr %5, align 8
  %120 = getelementptr inbounds %struct.lxb_encoding_encode_t, ptr %119, i32 0, i32 3
  %121 = load i64, ptr %120, align 8
  %122 = add i64 %121, 1
  store i64 %122, ptr %120, align 8
  %123 = getelementptr inbounds i8, ptr %118, i64 %121
  store i8 %115, ptr %123, align 1
  br label %218

124:                                              ; preds = %89
  %125 = load i32, ptr %8, align 4
  %126 = icmp eq i32 %125, 8722
  br i1 %126, label %127, label %128

127:                                              ; preds = %124
  store i32 65293, ptr %8, align 4
  br label %128

128:                                              ; preds = %127, %124
  %129 = load i32, ptr %8, align 4
  %130 = call ptr @lexbor_shs_hash_get_static(ptr noundef @lxb_encoding_multi_hash_jis0208, i64 noundef 9253, i32 noundef %129)
  store ptr %130, ptr %9, align 8
  %131 = load ptr, ptr %9, align 8
  %132 = icmp eq ptr %131, null
  br i1 %132, label %133, label %175

133:                                              ; preds = %128
  br label %134

134:                                              ; preds = %133
  %135 = load ptr, ptr %5, align 8
  %136 = getelementptr inbounds %struct.lxb_encoding_encode_t, ptr %135, i32 0, i32 4
  %137 = load ptr, ptr %136, align 8
  %138 = icmp eq ptr %137, null
  br i1 %138, label %139, label %140

139:                                              ; preds = %134
  store i32 1, ptr %4, align 4
  br label %223

140:                                              ; preds = %134
  %141 = load ptr, ptr %5, align 8
  %142 = getelementptr inbounds %struct.lxb_encoding_encode_t, ptr %141, i32 0, i32 3
  %143 = load i64, ptr %142, align 8
  %144 = load ptr, ptr %5, align 8
  %145 = getelementptr inbounds %struct.lxb_encoding_encode_t, ptr %144, i32 0, i32 5
  %146 = load i64, ptr %145, align 8
  %147 = add i64 %143, %146
  %148 = load ptr, ptr %5, align 8
  %149 = getelementptr inbounds %struct.lxb_encoding_encode_t, ptr %148, i32 0, i32 2
  %150 = load i64, ptr %149, align 8
  %151 = icmp ugt i64 %147, %150
  br i1 %151, label %152, label %153

152:                                              ; preds = %140
  store i32 15, ptr %4, align 4
  br label %223

153:                                              ; preds = %140
  %154 = load ptr, ptr %5, align 8
  %155 = getelementptr inbounds %struct.lxb_encoding_encode_t, ptr %154, i32 0, i32 1
  %156 = load ptr, ptr %155, align 8
  %157 = load ptr, ptr %5, align 8
  %158 = getelementptr inbounds %struct.lxb_encoding_encode_t, ptr %157, i32 0, i32 3
  %159 = load i64, ptr %158, align 8
  %160 = getelementptr inbounds i8, ptr %156, i64 %159
  %161 = load ptr, ptr %5, align 8
  %162 = getelementptr inbounds %struct.lxb_encoding_encode_t, ptr %161, i32 0, i32 4
  %163 = load ptr, ptr %162, align 8
  %164 = load ptr, ptr %5, align 8
  %165 = getelementptr inbounds %struct.lxb_encoding_encode_t, ptr %164, i32 0, i32 5
  %166 = load i64, ptr %165, align 8
  call void @llvm.memcpy.p0.p0.i64(ptr align 1 %160, ptr align 1 %163, i64 %166, i1 false)
  %167 = load ptr, ptr %5, align 8
  %168 = getelementptr inbounds %struct.lxb_encoding_encode_t, ptr %167, i32 0, i32 5
  %169 = load i64, ptr %168, align 8
  %170 = load ptr, ptr %5, align 8
  %171 = getelementptr inbounds %struct.lxb_encoding_encode_t, ptr %170, i32 0, i32 3
  %172 = load i64, ptr %171, align 8
  %173 = add i64 %172, %169
  store i64 %173, ptr %171, align 8
  br label %174

174:                                              ; preds = %153
  br label %218

175:                                              ; preds = %128
  %176 = load ptr, ptr %5, align 8
  %177 = getelementptr inbounds %struct.lxb_encoding_encode_t, ptr %176, i32 0, i32 3
  %178 = load i64, ptr %177, align 8
  %179 = add i64 %178, 2
  %180 = load ptr, ptr %5, align 8
  %181 = getelementptr inbounds %struct.lxb_encoding_encode_t, ptr %180, i32 0, i32 2
  %182 = load i64, ptr %181, align 8
  %183 = icmp ugt i64 %179, %182
  br i1 %183, label %184, label %185

184:                                              ; preds = %175
  store i32 15, ptr %4, align 4
  br label %223

185:                                              ; preds = %175
  %186 = load ptr, ptr %9, align 8
  %187 = getelementptr inbounds %struct.lexbor_shs_hash_t, ptr %186, i32 0, i32 1
  %188 = load i32, ptr %187, align 4
  %189 = zext i32 %188 to i64
  %190 = trunc i64 %189 to i32
  %191 = udiv i32 %190, 94
  %192 = add i32 %191, 161
  %193 = trunc i32 %192 to i8
  %194 = load ptr, ptr %5, align 8
  %195 = getelementptr inbounds %struct.lxb_encoding_encode_t, ptr %194, i32 0, i32 1
  %196 = load ptr, ptr %195, align 8
  %197 = load ptr, ptr %5, align 8
  %198 = getelementptr inbounds %struct.lxb_encoding_encode_t, ptr %197, i32 0, i32 3
  %199 = load i64, ptr %198, align 8
  %200 = add i64 %199, 1
  store i64 %200, ptr %198, align 8
  %201 = getelementptr inbounds i8, ptr %196, i64 %199
  store i8 %193, ptr %201, align 1
  %202 = load ptr, ptr %9, align 8
  %203 = getelementptr inbounds %struct.lexbor_shs_hash_t, ptr %202, i32 0, i32 1
  %204 = load i32, ptr %203, align 4
  %205 = zext i32 %204 to i64
  %206 = trunc i64 %205 to i32
  %207 = urem i32 %206, 94
  %208 = add i32 %207, 161
  %209 = trunc i32 %208 to i8
  %210 = load ptr, ptr %5, align 8
  %211 = getelementptr inbounds %struct.lxb_encoding_encode_t, ptr %210, i32 0, i32 1
  %212 = load ptr, ptr %211, align 8
  %213 = load ptr, ptr %5, align 8
  %214 = getelementptr inbounds %struct.lxb_encoding_encode_t, ptr %213, i32 0, i32 3
  %215 = load i64, ptr %214, align 8
  %216 = add i64 %215, 1
  store i64 %216, ptr %214, align 8
  %217 = getelementptr inbounds i8, ptr %212, i64 %215
  store i8 %209, ptr %217, align 1
  br label %218

218:                                              ; preds = %185, %174, %103, %88, %65, %42
  %219 = load ptr, ptr %6, align 8
  %220 = load ptr, ptr %219, align 8
  %221 = getelementptr inbounds i32, ptr %220, i32 1
  store ptr %221, ptr %219, align 8
  br label %10

222:                                              ; preds = %10
  store i32 0, ptr %4, align 4
  br label %223

223:                                              ; preds = %222, %184, %152, %139, %102, %78, %55, %30
  %224 = load i32, ptr %4, align 4
  ret i32 %224
}