; Function Attrs: nofree norecurse nosync nounwind memory(readwrite, inaccessiblemem: none) uwtable
define hidden noundef i32 @lxb_encoding_encode_euc_jp(ptr nocapture noundef %0, ptr nocapture noundef %1, ptr noundef readnone %2) local_unnamed_addr #0 {
  %4 = getelementptr inbounds i8, ptr %0, i64 24
  %5 = getelementptr inbounds i8, ptr %0, i64 32
  %6 = load ptr, ptr %1, align 8
  %7 = icmp ult ptr %6, %2
  br i1 %7, label %.lr.ph, label %._crit_edge

.lr.ph:                                           ; preds = %3
  %8 = getelementptr inbounds i8, ptr %0, i64 16
  %9 = getelementptr inbounds i8, ptr %0, i64 8
  %10 = getelementptr inbounds i8, ptr %0, i64 40
  br label %11

11:                                               ; preds = %.lr.ph, %105
  %12 = phi ptr [ %6, %.lr.ph ], [ %107, %105 ]
  %13 = load i32, ptr %12, align 4
  %14 = icmp ult i32 %13, 128
  br i1 %14, label %15, label %24

15:                                               ; preds = %11
  %16 = load i64, ptr %4, align 8
  %17 = load i64, ptr %8, align 8
  %18 = icmp eq i64 %16, %17
  br i1 %18, label %._crit_edge, label %19

19:                                               ; preds = %15
  %20 = trunc i32 %13 to i8
  %21 = load ptr, ptr %9, align 8
  %22 = add i64 %16, 1
  store i64 %22, ptr %4, align 8
  %23 = getelementptr inbounds i8, ptr %21, i64 %16
  store i8 %20, ptr %23, align 1
  br label %105

24:                                               ; preds = %11
  switch i32 %13, label %41 [
    i32 165, label %25
    i32 8254, label %33
  ]

25:                                               ; preds = %24
  %26 = load i64, ptr %4, align 8
  %27 = load i64, ptr %8, align 8
  %28 = icmp eq i64 %26, %27
  br i1 %28, label %._crit_edge, label %29

29:                                               ; preds = %25
  %30 = load ptr, ptr %9, align 8
  %31 = add i64 %26, 1
  store i64 %31, ptr %4, align 8
  %32 = getelementptr inbounds i8, ptr %30, i64 %26
  store i8 92, ptr %32, align 1
  br label %105

33:                                               ; preds = %24
  %34 = load i64, ptr %4, align 8
  %35 = load i64, ptr %8, align 8
  %36 = icmp eq i64 %34, %35
  br i1 %36, label %._crit_edge, label %37

37:                                               ; preds = %33
  %38 = load ptr, ptr %9, align 8
  %39 = add i64 %34, 1
  store i64 %39, ptr %4, align 8
  %40 = getelementptr inbounds i8, ptr %38, i64 %34
  store i8 126, ptr %40, align 1
  br label %105

41:                                               ; preds = %24
  %42 = add i32 %13, -65377
  %43 = icmp ult i32 %42, 63
  br i1 %43, label %44, label %59

44:                                               ; preds = %41
  %45 = load i64, ptr %4, align 8
  %46 = add i64 %45, 2
  %47 = load i64, ptr %8, align 8
  %48 = icmp ugt i64 %46, %47
  br i1 %48, label %._crit_edge, label %49

49:                                               ; preds = %44
  %50 = load ptr, ptr %9, align 8
  %51 = add i64 %45, 1
  store i64 %51, ptr %4, align 8
  %52 = getelementptr inbounds i8, ptr %50, i64 %45
  store i8 -114, ptr %52, align 1
  %53 = trunc i32 %13 to i8
  %54 = add nuw i8 %53, 64
  %55 = load ptr, ptr %9, align 8
  %56 = load i64, ptr %4, align 8
  %57 = add i64 %56, 1
  store i64 %57, ptr %4, align 8
  %58 = getelementptr inbounds i8, ptr %55, i64 %56
  store i8 %54, ptr %58, align 1
  br label %105

59:                                               ; preds = %41
  %60 = icmp eq i32 %13, 8722
  %spec.store.select = select i1 %60, i32 65293, i32 %13
  %61 = urem i32 %spec.store.select, 9253
  %.zext = zext nneg i32 %61 to i64
  %gep = getelementptr %struct.lexbor_shs_hash_t, ptr getelementptr inbounds ([11349 x %struct.lexbor_shs_hash_t], ptr @lxb_encoding_multi_hash_jis0208, i64 0, i64 1, i32 0), i64 %.zext
  br label %62

62:                                               ; preds = %65, %59
  %.0.i = phi ptr [ %gep, %59 ], [ %69, %65 ]
  %63 = load i32, ptr %.0.i, align 4
  %64 = icmp eq i32 %63, %spec.store.select
  br i1 %64, label %lexbor_shs_hash_get_static.exit, label %65

65:                                               ; preds = %62
  %66 = getelementptr inbounds i8, ptr %.0.i, i64 8
  %67 = load i32, ptr %66, align 4
  %68 = zext i32 %67 to i64
  %69 = getelementptr inbounds %struct.lexbor_shs_hash_t, ptr @lxb_encoding_multi_hash_jis0208, i64 %68
  %.not.i = icmp eq i32 %67, 0
  br i1 %.not.i, label %70, label %62

70:                                               ; preds = %65
  %71 = load ptr, ptr %5, align 8
  %72 = icmp eq ptr %71, null
  br i1 %72, label %._crit_edge, label %73

73:                                               ; preds = %70
  %74 = load i64, ptr %4, align 8
  %75 = load i64, ptr %10, align 8
  %76 = add i64 %75, %74
  %77 = load i64, ptr %8, align 8
  %78 = icmp ugt i64 %76, %77
  br i1 %78, label %._crit_edge, label %79

79:                                               ; preds = %73
  %80 = load ptr, ptr %9, align 8
  %81 = getelementptr inbounds i8, ptr %80, i64 %74
  tail call void @llvm.memcpy.p0.p0.i64(ptr align 1 %81, ptr nonnull align 1 %71, i64 %75, i1 false)
  %82 = load i64, ptr %10, align 8
  %83 = load i64, ptr %4, align 8
  %84 = add i64 %83, %82
  store i64 %84, ptr %4, align 8
  br label %105

lexbor_shs_hash_get_static.exit:                  ; preds = %62
  %85 = load i64, ptr %4, align 8
  %86 = add i64 %85, 2
  %87 = load i64, ptr %8, align 8
  %88 = icmp ugt i64 %86, %87
  br i1 %88, label %._crit_edge, label %89

89:                                               ; preds = %lexbor_shs_hash_get_static.exit
  %90 = getelementptr inbounds i8, ptr %.0.i, i64 4
  %91 = load i32, ptr %90, align 4
  %92 = udiv i32 %91, 94
  %93 = trunc i32 %92 to i8
  %94 = add i8 %93, -95
  %95 = load ptr, ptr %9, align 8
  %96 = add i64 %85, 1
  store i64 %96, ptr %4, align 8
  %97 = getelementptr inbounds i8, ptr %95, i64 %85
  store i8 %94, ptr %97, align 1
  %98 = urem i32 %91, 94
  %99 = trunc i32 %98 to i8
  %100 = add nuw nsw i8 %99, -95
  %101 = load ptr, ptr %9, align 8
  %102 = load i64, ptr %4, align 8
  %103 = add i64 %102, 1
  store i64 %103, ptr %4, align 8
  %104 = getelementptr inbounds i8, ptr %101, i64 %102
  store i8 %100, ptr %104, align 1
  br label %105

105:                                              ; preds = %89, %79, %49, %37, %29, %19
  %106 = load ptr, ptr %1, align 8
  %107 = getelementptr inbounds i8, ptr %106, i64 4
  store ptr %107, ptr %1, align 8
  %108 = icmp ult ptr %107, %2
  br i1 %108, label %11, label %._crit_edge

._crit_edge:                                      ; preds = %15, %25, %33, %44, %70, %73, %lexbor_shs_hash_get_static.exit, %105, %3
  %.0 = phi i32 [ 0, %3 ], [ 0, %105 ], [ 15, %lexbor_shs_hash_get_static.exit ], [ 15, %73 ], [ 1, %70 ], [ 15, %44 ], [ 15, %33 ], [ 15, %25 ], [ 15, %15 ]
  ret i32 %.0
}